---
triple:          'arm64-apple-darwin'
binary-path:     main
relocations:
  - { offsetInCU: 0x30D4, offset: 0x30D4, size: 0x8, addend: 0x0, symName: __ZNSt3__124__put_character_sequenceB7v160006IcNS_11char_traitsIcEEEERNS_13basic_ostreamIT_T0_EES7_PKS4_m, symObjAddr: 0x2CB8, symBinAddr: 0x100006DE8, symSize: 0x1EC }
  - { offsetInCU: 0x6A54, offset: 0x6A54, size: 0x8, addend: 0x0, symName: __ZNSt3__1lsB7v160006INS_11char_traitsIcEEEERNS_13basic_ostreamIcT_EES6_PKc, symObjAddr: 0x134, symBinAddr: 0x100004264, symSize: 0x48 }
  - { offsetInCU: 0x6A9A, offset: 0x6A9A, size: 0x8, addend: 0x0, symName: __ZNSt3__14endlB7v160006IcNS_11char_traitsIcEEEERNS_13basic_ostreamIT_T0_EES7_, symObjAddr: 0x1A8, symBinAddr: 0x1000042D8, symSize: 0x58 }
  - { offsetInCU: 0x6ADA, offset: 0x6ADA, size: 0x8, addend: 0x0, symName: __ZNSt3__1plB7v160006IcNS_11char_traitsIcEENS_9allocatorIcEEEENS_12basic_stringIT_T0_T1_EEOS9_PKS6_, symObjAddr: 0x6E0, symBinAddr: 0x100004810, symSize: 0x40 }
  - { offsetInCU: 0x6B32, offset: 0x6B32, size: 0x8, addend: 0x0, symName: __ZNSt3__1plB7v160006IcNS_11char_traitsIcEENS_9allocatorIcEEEENS_12basic_stringIT_T0_T1_EEOS9_RKS9_, symObjAddr: 0x720, symBinAddr: 0x100004850, symSize: 0x40 }
  - { offsetInCU: 0x6B8A, offset: 0x6B8A, size: 0x8, addend: 0x0, symName: __ZNSt3__1rsB7v160006IcNS_11char_traitsIcEENS_9allocatorIcEEEERNS_13basic_istreamIT_T0_EES9_RNS_12basic_stringIS6_S7_T1_EE, symObjAddr: 0x281C, symBinAddr: 0x10000694C, symSize: 0x30C }
  - { offsetInCU: 0x6C57, offset: 0x6C57, size: 0x8, addend: 0x0, symName: __ZNSt3__116__pad_and_outputB7v160006IcNS_11char_traitsIcEEEENS_19ostreambuf_iteratorIT_T0_EES6_PKS4_S8_S8_RNS_8ios_baseES4_, symObjAddr: 0x2EF4, symBinAddr: 0x100007024, symSize: 0x240 }
  - { offsetInCU: 0x6D26, offset: 0x6D26, size: 0x8, addend: 0x0, symName: __ZNSt3__119__debug_db_insert_cB7v160006INS_12basic_stringIcNS_11char_traitsIcEENS_9allocatorIcEEEEEEvPT_, symObjAddr: 0x33B4, symBinAddr: 0x1000074E4, symSize: 0x10 }
  - { offsetInCU: 0x6D57, offset: 0x6D57, size: 0x8, addend: 0x0, symName: __ZNSt3__112__to_addressB7v160006IKcEEPT_S3_, symObjAddr: 0x3480, symBinAddr: 0x1000075B0, symSize: 0x14 }
  - { offsetInCU: 0x6DBF, offset: 0x6DBF, size: 0x8, addend: 0x0, symName: __ZNSt3__19use_facetB7v160006INS_5ctypeIcEEEERKT_RKNS_6localeE, symObjAddr: 0x3700, symBinAddr: 0x100007830, symSize: 0x2C }
  - { offsetInCU: 0x719F, offset: 0x719F, size: 0x8, addend: 0x0, symName: __ZNSt3__118__constexpr_strlenB7v160006EPKc, symObjAddr: 0x3798, symBinAddr: 0x1000078C8, symSize: 0x24 }
  - { offsetInCU: 0x71CB, offset: 0x71CB, size: 0x8, addend: 0x0, symName: __ZNSt3__115__debug_db_swapB7v160006INS_12basic_stringIcNS_11char_traitsIcEENS_9allocatorIcEEEEEEvPT_S8_, symObjAddr: 0x38B4, symBinAddr: 0x1000079E4, symSize: 0x14 }
  - { offsetInCU: 0x720A, offset: 0x720A, size: 0x8, addend: 0x0, symName: __ZNSt3__119__libcpp_deallocateB7v160006EPvmm, symObjAddr: 0x3BA8, symBinAddr: 0x100007CD8, symSize: 0x30 }
  - { offsetInCU: 0x7252, offset: 0x7252, size: 0x8, addend: 0x0, symName: __ZNSt3__127__do_deallocate_handle_sizeB7v160006IJEEEvPvmDpT_, symObjAddr: 0x3BD8, symBinAddr: 0x100007D08, symSize: 0x28 }
  - { offsetInCU: 0x7290, offset: 0x7290, size: 0x8, addend: 0x0, symName: __ZNSt3__124__libcpp_operator_deleteB7v160006IJPvEEEvDpT_, symObjAddr: 0x3C00, symBinAddr: 0x100007D30, symSize: 0x24 }
  - { offsetInCU: 0x72F8, offset: 0x72F8, size: 0x8, addend: 0x0, symName: __ZNSt3__119__debug_db_insert_cB7v160006INS_6vectorI7AccountNS_9allocatorIS2_EEEEEEvPT_, symObjAddr: 0x3D88, symBinAddr: 0x100007EB8, symSize: 0x10 }
  - { offsetInCU: 0x7329, offset: 0x7329, size: 0x8, addend: 0x0, symName: __ZNSt3__118__debug_db_erase_cB7v160006INS_6vectorI7AccountNS_9allocatorIS2_EEEEEEvPT_, symObjAddr: 0x4068, symBinAddr: 0x100008198, symSize: 0x10 }
  - { offsetInCU: 0x735A, offset: 0x735A, size: 0x8, addend: 0x0, symName: __ZNSt3__112__to_addressB7v160006I7AccountEEPT_S3_, symObjAddr: 0x41AC, symBinAddr: 0x1000082DC, symSize: 0x14 }
  - { offsetInCU: 0x738F, offset: 0x738F, size: 0x8, addend: 0x0, symName: __ZNSt3__13minB7v160006ImEERKT_S3_S3_, symObjAddr: 0x4620, symBinAddr: 0x100008750, symSize: 0x2C }
  - { offsetInCU: 0x75D3, offset: 0x75D3, size: 0x8, addend: 0x0, symName: __ZNSt3__13minB7v160006ImNS_6__lessImmEEEERKT_S5_S5_T0_, symObjAddr: 0x46AC, symBinAddr: 0x1000087DC, symSize: 0x54 }
  - { offsetInCU: 0x7668, offset: 0x7668, size: 0x8, addend: 0x0, symName: __ZNSt3__120__throw_length_errorB7v160006EPKc, symObjAddr: 0x4794, symBinAddr: 0x1000088C4, symSize: 0x64 }
  - { offsetInCU: 0x7690, offset: 0x7690, size: 0x8, addend: 0x0, symName: __ZNSt3__119__allocate_at_leastB7v160006INS_9allocatorI7AccountEEEENS_19__allocation_resultINS_16allocator_traitsIT_E7pointerEEERS6_m, symObjAddr: 0x4994, symBinAddr: 0x100008AC4, symSize: 0x40 }
  - { offsetInCU: 0x76D3, offset: 0x76D3, size: 0x8, addend: 0x0, symName: __ZNSt3__117__libcpp_allocateB7v160006Emm, symObjAddr: 0x4B1C, symBinAddr: 0x100008C4C, symSize: 0x28 }
  - { offsetInCU: 0x7710, offset: 0x7710, size: 0x8, addend: 0x0, symName: __ZNSt3__121__libcpp_operator_newB7v160006IJmEEEPvDpT_, symObjAddr: 0x4B44, symBinAddr: 0x100008C74, symSize: 0x24 }
  - { offsetInCU: 0x7749, offset: 0x7749, size: 0x8, addend: 0x0, symName: __ZNSt3__142__uninitialized_allocator_move_if_noexceptB7v160006INS_9allocatorI7AccountEENS_16reverse_iteratorIPS2_EES6_S6_EET2_RT_T0_T1_S7_, symObjAddr: 0x4BE0, symBinAddr: 0x100008D10, symSize: 0x12C }
  - { offsetInCU: 0x77E9, offset: 0x77E9, size: 0x8, addend: 0x0, symName: __ZNSt3__14swapB7v160006IP7AccountEENS_9enable_ifIXaasr21is_move_constructibleIT_EE5valuesr18is_move_assignableIS4_EE5valueEvE4typeERS4_S7_, symObjAddr: 0x4D58, symBinAddr: 0x100008E88, symSize: 0x3C }
  - { offsetInCU: 0x783A, offset: 0x783A, size: 0x8, addend: 0x0, symName: __ZNSt3__125__debug_db_invalidate_allB7v160006INS_6vectorI7AccountNS_9allocatorIS2_EEEEEEvPT_, symObjAddr: 0x4E84, symBinAddr: 0x100008FB4, symSize: 0x10 }
  - { offsetInCU: 0x786B, offset: 0x786B, size: 0x8, addend: 0x0, symName: __ZNSt3__122__make_exception_guardB7v160006INS_29_AllocatorDestroyRangeReverseINS_9allocatorI7AccountEENS_16reverse_iteratorIPS3_EEEEEENS_28__exception_guard_exceptionsIT_EESA_, symObjAddr: 0x4E94, symBinAddr: 0x100008FC4, symSize: 0x4C }
  - { offsetInCU: 0x78A1, offset: 0x78A1, size: 0x8, addend: 0x0, symName: __ZNSt3__1neB7v160006IP7AccountS2_EEbRKNS_16reverse_iteratorIT_EERKNS3_IT0_EE, symObjAddr: 0x4F24, symBinAddr: 0x100009054, symSize: 0x48 }
  - { offsetInCU: 0x78ED, offset: 0x78ED, size: 0x8, addend: 0x0, symName: __ZNSt3__112__to_addressB7v160006INS_16reverse_iteratorIP7AccountEEvEENS_5decayIDTclsr19__to_address_helperIT_EE6__callclsr3stdE7declvalIRKS6_EEEEE4typeES8_, symObjAddr: 0x4FA0, symBinAddr: 0x1000090D0, symSize: 0x24 }
  - { offsetInCU: 0x794C, offset: 0x794C, size: 0x8, addend: 0x0, symName: __ZNSt3__119__allocator_destroyB7v160006INS_9allocatorI7AccountEENS_16reverse_iteratorINS4_IPS2_EEEES7_EEvRT_T0_T1_, symObjAddr: 0x536C, symBinAddr: 0x10000949C, symSize: 0x70 }
  - { offsetInCU: 0x79B1, offset: 0x79B1, size: 0x8, addend: 0x0, symName: __ZNSt3__1neB7v160006INS_16reverse_iteratorIP7AccountEES4_EEbRKNS1_IT_EERKNS1_IT0_EE, symObjAddr: 0x5418, symBinAddr: 0x100009548, symSize: 0x60 }
  - { offsetInCU: 0x79FD, offset: 0x79FD, size: 0x8, addend: 0x0, symName: __ZNSt3__112__to_addressB7v160006INS_16reverse_iteratorINS1_IP7AccountEEEEvEENS_5decayIDTclsr19__to_address_helperIT_EE6__callclsr3stdE7declvalIRKS7_EEEEE4typeES9_, symObjAddr: 0x5478, symBinAddr: 0x1000095A8, symSize: 0x24 }
  - { offsetInCU: 0x7FE6, offset: 0x7FE6, size: 0x8, addend: 0x0, symName: __ZNSt3__125__debug_db_invalidate_allB7v160006INS_12basic_stringIcNS_11char_traitsIcEENS_9allocatorIcEEEEEEvPT_, symObjAddr: 0x5B58, symBinAddr: 0x100009C88, symSize: 0x10 }
  - { offsetInCU: 0x823D, offset: 0x823D, size: 0x8, addend: 0x0, symName: __ZNSt3__118__constexpr_memcmpB7v160006IcEEiPKT_S3_m, symObjAddr: 0x5F68, symBinAddr: 0x10000A098, symSize: 0x34 }
  - { offsetInCU: 0x84F2, offset: 0x84F2, size: 0x8, addend: 0x0, symName: __ZSt28__throw_bad_array_new_lengthB7v160006v, symObjAddr: 0x4AE8, symBinAddr: 0x100008C18, symSize: 0x34 }
  - { offsetInCU: 0x92FA, offset: 0x92FA, size: 0x8, addend: 0x0, symName: __ZNSt3__16vectorI7AccountNS_9allocatorIS1_EEE26__swap_out_circular_bufferERNS_14__split_bufferIS1_RS3_EE, symObjAddr: 0x44DC, symBinAddr: 0x10000860C, symSize: 0x118 }
  - { offsetInCU: 0xB4EB, offset: 0xB4EB, size: 0x8, addend: 0x0, symName: __Z22mysql_connection_setupP18connection_details, symObjAddr: 0x0, symBinAddr: 0x100004130, symSize: 0x134 }
  - { offsetInCU: 0xB526, offset: 0xB526, size: 0x8, addend: 0x0, symName: __ZNSt3__113basic_ostreamIcNS_11char_traitsIcEEElsB7v160006EPFRS3_S4_E, symObjAddr: 0x17C, symBinAddr: 0x1000042AC, symSize: 0x2C }
  - { offsetInCU: 0xB559, offset: 0xB559, size: 0x8, addend: 0x0, symName: __ZNKSt3__112basic_stringIcNS_11char_traitsIcEENS_9allocatorIcEEE5c_strB7v160006Ev, symObjAddr: 0x200, symBinAddr: 0x100004330, symSize: 0x24 }
  - { offsetInCU: 0xB57D, offset: 0xB57D, size: 0x8, addend: 0x0, symName: __Z19mysql_perform_queryP5MYSQLPKc, symObjAddr: 0x224, symBinAddr: 0x100004354, symSize: 0x84 }
  - { offsetInCU: 0xB5B8, offset: 0xB5B8, size: 0x8, addend: 0x0, symName: __ZN7Account14create_accountEiNSt3__112basic_stringIcNS0_11char_traitsIcEENS0_9allocatorIcEEEES6_S6_S6_S6_S6_S6_S6_iP5MYSQL, symObjAddr: 0x2A8, symBinAddr: 0x1000043D8, symSize: 0x438 }
  - { offsetInCU: 0xB6E0, offset: 0xB6E0, size: 0x8, addend: 0x0, symName: __ZNSt3__112basic_stringIcNS_11char_traitsIcEENS_9allocatorIcEEEaSB7v160006EOS5_, symObjAddr: 0x760, symBinAddr: 0x100004890, symSize: 0x34 }
  - { offsetInCU: 0xB714, offset: 0xB714, size: 0x8, addend: 0x0, symName: __ZN7Account13check_balanceERKS_P5MYSQL, symObjAddr: 0x794, symBinAddr: 0x1000048C4, symSize: 0x18C }
  - { offsetInCU: 0xB79E, offset: 0xB79E, size: 0x8, addend: 0x0, symName: __ZN7Account15remove_accountsERKS_P5MYSQL, symObjAddr: 0x920, symBinAddr: 0x100004A50, symSize: 0xBC }
  - { offsetInCU: 0xB887, offset: 0xB887, size: 0x8, addend: 0x0, symName: __ZN12Transactions16money_withdrawalERK7AccountP5MYSQLi, symObjAddr: 0x9DC, symBinAddr: 0x100004B0C, symSize: 0x2FC }
  - { offsetInCU: 0xB93F, offset: 0xB93F, size: 0x8, addend: 0x0, symName: __ZN12Transactions28retrieve_transaction_historyERK7AccountP5MYSQL, symObjAddr: 0xCD8, symBinAddr: 0x100004E08, symSize: 0x168 }
  - { offsetInCU: 0xB9C9, offset: 0xB9C9, size: 0x8, addend: 0x0, symName: __ZN12Transactions14transfer_moneyERK7AccountS2_P5MYSQLi, symObjAddr: 0xE40, symBinAddr: 0x100004F70, symSize: 0x44C }
  - { offsetInCU: 0xBAAD, offset: 0xBAAD, size: 0x8, addend: 0x0, symName: _main, symObjAddr: 0x128C, symBinAddr: 0x1000053BC, symSize: 0x13E4 }
  - { offsetInCU: 0xBC76, offset: 0xBC76, size: 0x8, addend: 0x0, symName: __ZN18connection_detailsC1Ev, symObjAddr: 0x2684, symBinAddr: 0x1000067B4, symSize: 0x2C }
  - { offsetInCU: 0xBCA1, offset: 0xBCA1, size: 0x8, addend: 0x0, symName: __ZNSt3__112basic_stringIcNS_11char_traitsIcEENS_9allocatorIcEEEaSB7v160006EPKc, symObjAddr: 0x26B0, symBinAddr: 0x1000067E0, symSize: 0x2C }
  - { offsetInCU: 0xBCD5, offset: 0xBCD5, size: 0x8, addend: 0x0, symName: __ZNSt3__112basic_stringIcNS_11char_traitsIcEENS_9allocatorIcEEEC1B7v160006Ev, symObjAddr: 0x26DC, symBinAddr: 0x10000680C, symSize: 0x2C }
  - { offsetInCU: 0xBCFE, offset: 0xBCFE, size: 0x8, addend: 0x0, symName: __ZNSt3__16vectorI7AccountNS_9allocatorIS1_EEEC1B7v160006Ev, symObjAddr: 0x2708, symBinAddr: 0x100006838, symSize: 0x2C }
  - { offsetInCU: 0xBD26, offset: 0xBD26, size: 0x8, addend: 0x0, symName: __ZNSt3__16vectorI7AccountNS_9allocatorIS1_EEE7reserveEm, symObjAddr: 0x2734, symBinAddr: 0x100006864, symSize: 0xE8 }
  - { offsetInCU: 0xBD81, offset: 0xBD81, size: 0x8, addend: 0x0, symName: __ZNSt3__112basic_stringIcNS_11char_traitsIcEENS_9allocatorIcEEE6appendB7v160006ERKS5_, symObjAddr: 0x2B28, symBinAddr: 0x100006C58, symSize: 0x4C }
  - { offsetInCU: 0xBDB4, offset: 0xBDB4, size: 0x8, addend: 0x0, symName: __ZNKSt3__112basic_stringIcNS_11char_traitsIcEENS_9allocatorIcEEE7compareB7v160006ERKS5_, symObjAddr: 0x2B74, symBinAddr: 0x100006CA4, symSize: 0x4C }
  - { offsetInCU: 0xBDEA, offset: 0xBDEA, size: 0x8, addend: 0x0, symName: __ZNSt3__16vectorI7AccountNS_9allocatorIS1_EEED1B7v160006Ev, symObjAddr: 0x2BC0, symBinAddr: 0x100006CF0, symSize: 0x2C }
  - { offsetInCU: 0xBE13, offset: 0xBE13, size: 0x8, addend: 0x0, symName: __ZN18connection_detailsD1Ev, symObjAddr: 0x2BEC, symBinAddr: 0x100006D1C, symSize: 0x2C }
  - { offsetInCU: 0xBE3E, offset: 0xBE3E, size: 0x8, addend: 0x0, symName: __ZN18connection_detailsC2Ev, symObjAddr: 0x2C18, symBinAddr: 0x100006D48, symSize: 0x50 }
  - { offsetInCU: 0xBE69, offset: 0xBE69, size: 0x8, addend: 0x0, symName: __ZN18connection_detailsD2Ev, symObjAddr: 0x2C68, symBinAddr: 0x100006D98, symSize: 0x50 }
  - { offsetInCU: 0xBE94, offset: 0xBE94, size: 0x8, addend: 0x0, symName: __ZNSt3__111char_traitsIcE6lengthEPKc, symObjAddr: 0x2EA4, symBinAddr: 0x100006FD4, symSize: 0x34 }
  - { offsetInCU: 0xBED5, offset: 0xBED5, size: 0x8, addend: 0x0, symName: __ZNKSt3__113basic_ostreamIcNS_11char_traitsIcEEE6sentrycvbB7v160006Ev, symObjAddr: 0x2ED8, symBinAddr: 0x100007008, symSize: 0x1C }
  - { offsetInCU: 0xBEFA, offset: 0xBEFA, size: 0x8, addend: 0x0, symName: __ZNSt3__119ostreambuf_iteratorIcNS_11char_traitsIcEEEC1B7v160006ERNS_13basic_ostreamIcS2_EE, symObjAddr: 0x3134, symBinAddr: 0x100007264, symSize: 0x34 }
  - { offsetInCU: 0xBF31, offset: 0xBF31, size: 0x8, addend: 0x0, symName: __ZNKSt3__18ios_base5flagsB7v160006Ev, symObjAddr: 0x3168, symBinAddr: 0x100007298, symSize: 0x18 }
  - { offsetInCU: 0xBF57, offset: 0xBF57, size: 0x8, addend: 0x0, symName: __ZNKSt3__19basic_iosIcNS_11char_traitsIcEEE4fillB7v160006Ev, symObjAddr: 0x3180, symBinAddr: 0x1000072B0, symSize: 0x64 }
  - { offsetInCU: 0xBF7E, offset: 0xBF7E, size: 0x8, addend: 0x0, symName: __ZNKSt3__119ostreambuf_iteratorIcNS_11char_traitsIcEEE6failedB7v160006Ev, symObjAddr: 0x31E4, symBinAddr: 0x100007314, symSize: 0x24 }
  - { offsetInCU: 0xBFA3, offset: 0xBFA3, size: 0x8, addend: 0x0, symName: __ZNSt3__19basic_iosIcNS_11char_traitsIcEEE8setstateB7v160006Ej, symObjAddr: 0x3208, symBinAddr: 0x100007338, symSize: 0x2C }
  - { offsetInCU: 0xBFD7, offset: 0xBFD7, size: 0x8, addend: 0x0, symName: __ZNKSt3__18ios_base5widthB7v160006Ev, symObjAddr: 0x3240, symBinAddr: 0x100007370, symSize: 0x18 }
  - { offsetInCU: 0xBFFE, offset: 0xBFFE, size: 0x8, addend: 0x0, symName: __ZNSt3__115basic_streambufIcNS_11char_traitsIcEEE5sputnB7v160006EPKcl, symObjAddr: 0x3258, symBinAddr: 0x100007388, symSize: 0x3C }
  - { offsetInCU: 0xC03F, offset: 0xC03F, size: 0x8, addend: 0x0, symName: __ZNSt3__112basic_stringIcNS_11char_traitsIcEENS_9allocatorIcEEEC1B7v160006Emc, symObjAddr: 0x3294, symBinAddr: 0x1000073C4, symSize: 0x3C }
  - { offsetInCU: 0xC086, offset: 0xC086, size: 0x8, addend: 0x0, symName: __ZNKSt3__112basic_stringIcNS_11char_traitsIcEENS_9allocatorIcEEE4dataB7v160006Ev, symObjAddr: 0x32D0, symBinAddr: 0x100007400, symSize: 0x28 }
  - { offsetInCU: 0xC0AB, offset: 0xC0AB, size: 0x8, addend: 0x0, symName: __ZNSt3__18ios_base5widthB7v160006El, symObjAddr: 0x32F8, symBinAddr: 0x100007428, symSize: 0x2C }
  - { offsetInCU: 0xC0F0, offset: 0xC0F0, size: 0x8, addend: 0x0, symName: __ZNSt3__112basic_stringIcNS_11char_traitsIcEENS_9allocatorIcEEEC2B7v160006Emc, symObjAddr: 0x3324, symBinAddr: 0x100007454, symSize: 0x54 }
  - { offsetInCU: 0xC13C, offset: 0xC13C, size: 0x8, addend: 0x0, symName: __ZNSt3__117__compressed_pairINS_12basic_stringIcNS_11char_traitsIcEENS_9allocatorIcEEE5__repES5_EC1B7v160006INS_18__default_init_tagESA_EEOT_OT0_, symObjAddr: 0x3378, symBinAddr: 0x1000074A8, symSize: 0x3C }
  - { offsetInCU: 0xC193, offset: 0xC193, size: 0x8, addend: 0x0, symName: __ZNSt3__117__compressed_pairINS_12basic_stringIcNS_11char_traitsIcEENS_9allocatorIcEEE5__repES5_EC2B7v160006INS_18__default_init_tagESA_EEOT_OT0_, symObjAddr: 0x33C4, symBinAddr: 0x1000074F4, symSize: 0x3C }
  - { offsetInCU: 0xC1EA, offset: 0xC1EA, size: 0x8, addend: 0x0, symName: __ZNSt3__122__compressed_pair_elemINS_12basic_stringIcNS_11char_traitsIcEENS_9allocatorIcEEE5__repELi0ELb0EEC2B7v160006ENS_18__default_init_tagE, symObjAddr: 0x3400, symBinAddr: 0x100007530, symSize: 0x14 }
  - { offsetInCU: 0xC21E, offset: 0xC21E, size: 0x8, addend: 0x0, symName: __ZNSt3__122__compressed_pair_elemINS_9allocatorIcEELi1ELb1EEC2B7v160006ENS_18__default_init_tagE, symObjAddr: 0x3414, symBinAddr: 0x100007544, symSize: 0x2C }
  - { offsetInCU: 0xC252, offset: 0xC252, size: 0x8, addend: 0x0, symName: __ZNSt3__19allocatorIcEC2B7v160006Ev, symObjAddr: 0x3440, symBinAddr: 0x100007570, symSize: 0x2C }
  - { offsetInCU: 0xC27B, offset: 0xC27B, size: 0x8, addend: 0x0, symName: __ZNSt3__116__non_trivial_ifILb1ENS_9allocatorIcEEEC2B7v160006Ev, symObjAddr: 0x346C, symBinAddr: 0x10000759C, symSize: 0x14 }
  - { offsetInCU: 0xC2A4, offset: 0xC2A4, size: 0x8, addend: 0x0, symName: __ZNKSt3__112basic_stringIcNS_11char_traitsIcEENS_9allocatorIcEEE13__get_pointerB7v160006Ev, symObjAddr: 0x3494, symBinAddr: 0x1000075C4, symSize: 0x54 }
  - { offsetInCU: 0xC2C9, offset: 0xC2C9, size: 0x8, addend: 0x0, symName: __ZNKSt3__112basic_stringIcNS_11char_traitsIcEENS_9allocatorIcEEE9__is_longB7v160006Ev, symObjAddr: 0x34E8, symBinAddr: 0x100007618, symSize: 0x38 }
  - { offsetInCU: 0xC2EE, offset: 0xC2EE, size: 0x8, addend: 0x0, symName: __ZNKSt3__112basic_stringIcNS_11char_traitsIcEENS_9allocatorIcEEE18__get_long_pointerB7v160006Ev, symObjAddr: 0x3520, symBinAddr: 0x100007650, symSize: 0x28 }
  - { offsetInCU: 0xC313, offset: 0xC313, size: 0x8, addend: 0x0, symName: __ZNKSt3__112basic_stringIcNS_11char_traitsIcEENS_9allocatorIcEEE19__get_short_pointerB7v160006Ev, symObjAddr: 0x3548, symBinAddr: 0x100007678, symSize: 0x28 }
  - { offsetInCU: 0xC338, offset: 0xC338, size: 0x8, addend: 0x0, symName: __ZNKSt3__117__compressed_pairINS_12basic_stringIcNS_11char_traitsIcEENS_9allocatorIcEEE5__repES5_E5firstB7v160006Ev, symObjAddr: 0x3570, symBinAddr: 0x1000076A0, symSize: 0x24 }
  - { offsetInCU: 0xC35D, offset: 0xC35D, size: 0x8, addend: 0x0, symName: __ZNKSt3__122__compressed_pair_elemINS_12basic_stringIcNS_11char_traitsIcEENS_9allocatorIcEEE5__repELi0ELb0EE5__getB7v160006Ev, symObjAddr: 0x3594, symBinAddr: 0x1000076C4, symSize: 0x14 }
  - { offsetInCU: 0xC382, offset: 0xC382, size: 0x8, addend: 0x0, symName: __ZNSt3__114pointer_traitsIPKcE10pointer_toB7v160006ERS1_, symObjAddr: 0x35A8, symBinAddr: 0x1000076D8, symSize: 0x14 }
  - { offsetInCU: 0xC3A5, offset: 0xC3A5, size: 0x8, addend: 0x0, symName: __ZNSt3__119ostreambuf_iteratorIcNS_11char_traitsIcEEEC2B7v160006ERNS_13basic_ostreamIcS2_EE, symObjAddr: 0x35BC, symBinAddr: 0x1000076EC, symSize: 0x54 }
  - { offsetInCU: 0xC3DB, offset: 0xC3DB, size: 0x8, addend: 0x0, symName: __ZNKSt3__19basic_iosIcNS_11char_traitsIcEEE5rdbufB7v160006Ev, symObjAddr: 0x3610, symBinAddr: 0x100007740, symSize: 0x24 }
  - { offsetInCU: 0xC402, offset: 0xC402, size: 0x8, addend: 0x0, symName: __ZNKSt3__18ios_base5rdbufB7v160006Ev, symObjAddr: 0x3634, symBinAddr: 0x100007764, symSize: 0x18 }
  - { offsetInCU: 0xC427, offset: 0xC427, size: 0x8, addend: 0x0, symName: __ZNSt3__111char_traitsIcE11eq_int_typeEii, symObjAddr: 0x364C, symBinAddr: 0x10000777C, symSize: 0x28 }
  - { offsetInCU: 0xC458, offset: 0xC458, size: 0x8, addend: 0x0, symName: __ZNSt3__111char_traitsIcE3eofEv, symObjAddr: 0x3674, symBinAddr: 0x1000077A4, symSize: 0x8 }
  - { offsetInCU: 0xC46B, offset: 0xC46B, size: 0x8, addend: 0x0, symName: __ZNKSt3__19basic_iosIcNS_11char_traitsIcEEE5widenB7v160006Ec, symObjAddr: 0x367C, symBinAddr: 0x1000077AC, symSize: 0x84 }
  - { offsetInCU: 0xC4CE, offset: 0xC4CE, size: 0x8, addend: 0x0, symName: __ZNKSt3__15ctypeIcE5widenB7v160006Ec, symObjAddr: 0x372C, symBinAddr: 0x10000785C, symSize: 0x38 }
  - { offsetInCU: 0xC501, offset: 0xC501, size: 0x8, addend: 0x0, symName: __ZNSt3__18ios_base8setstateB7v160006Ej, symObjAddr: 0x3764, symBinAddr: 0x100007894, symSize: 0x34 }
  - { offsetInCU: 0xC537, offset: 0xC537, size: 0x8, addend: 0x0, symName: __ZNSt3__112basic_stringIcNS_11char_traitsIcEENS_9allocatorIcEEEC1B7v160006EOS5_, symObjAddr: 0x37BC, symBinAddr: 0x1000078EC, symSize: 0x34 }
  - { offsetInCU: 0xC56F, offset: 0xC56F, size: 0x8, addend: 0x0, symName: __ZNSt3__112basic_stringIcNS_11char_traitsIcEENS_9allocatorIcEEEC2B7v160006EOS5_, symObjAddr: 0x37F0, symBinAddr: 0x100007920, symSize: 0x84 }
  - { offsetInCU: 0xC5A7, offset: 0xC5A7, size: 0x8, addend: 0x0, symName: __ZNSt3__112basic_stringIcNS_11char_traitsIcEENS_9allocatorIcEEE14__default_initB7v160006Ev, symObjAddr: 0x3874, symBinAddr: 0x1000079A4, symSize: 0x40 }
  - { offsetInCU: 0xC5CC, offset: 0xC5CC, size: 0x8, addend: 0x0, symName: __ZNSt3__117__compressed_pairINS_12basic_stringIcNS_11char_traitsIcEENS_9allocatorIcEEE5__repES5_E5firstB7v160006Ev, symObjAddr: 0x38C8, symBinAddr: 0x1000079F8, symSize: 0x24 }
  - { offsetInCU: 0xC5F1, offset: 0xC5F1, size: 0x8, addend: 0x0, symName: __ZNSt3__122__compressed_pair_elemINS_12basic_stringIcNS_11char_traitsIcEENS_9allocatorIcEEE5__repELi0ELb0EE5__getB7v160006Ev, symObjAddr: 0x38EC, symBinAddr: 0x100007A1C, symSize: 0x14 }
  - { offsetInCU: 0xC615, offset: 0xC615, size: 0x8, addend: 0x0, symName: __ZNSt3__112basic_stringIcNS_11char_traitsIcEENS_9allocatorIcEEE13__move_assignB7v160006ERS5_NS_17integral_constantIbLb1EEE, symObjAddr: 0x3900, symBinAddr: 0x100007A30, symSize: 0xC8 }
  - { offsetInCU: 0xC657, offset: 0xC657, size: 0x8, addend: 0x0, symName: __ZNSt3__116allocator_traitsINS_9allocatorIcEEE10deallocateB7v160006ERS2_Pcm, symObjAddr: 0x39C8, symBinAddr: 0x100007AF8, symSize: 0x34 }
  - { offsetInCU: 0xC699, offset: 0xC699, size: 0x8, addend: 0x0, symName: __ZNSt3__112basic_stringIcNS_11char_traitsIcEENS_9allocatorIcEEE7__allocB7v160006Ev, symObjAddr: 0x39FC, symBinAddr: 0x100007B2C, symSize: 0x24 }
  - { offsetInCU: 0xC6BE, offset: 0xC6BE, size: 0x8, addend: 0x0, symName: __ZNSt3__112basic_stringIcNS_11char_traitsIcEENS_9allocatorIcEEE18__get_long_pointerB7v160006Ev, symObjAddr: 0x3A20, symBinAddr: 0x100007B50, symSize: 0x28 }
  - { offsetInCU: 0xC6E3, offset: 0xC6E3, size: 0x8, addend: 0x0, symName: __ZNKSt3__112basic_stringIcNS_11char_traitsIcEENS_9allocatorIcEEE14__get_long_capB7v160006Ev, symObjAddr: 0x3A48, symBinAddr: 0x100007B78, symSize: 0x30 }
  - { offsetInCU: 0xC708, offset: 0xC708, size: 0x8, addend: 0x0, symName: __ZNSt3__112basic_stringIcNS_11char_traitsIcEENS_9allocatorIcEEE19__move_assign_allocB7v160006ERS5_, symObjAddr: 0x3A78, symBinAddr: 0x100007BA8, symSize: 0x2C }
  - { offsetInCU: 0xC73C, offset: 0xC73C, size: 0x8, addend: 0x0, symName: __ZNSt3__112basic_stringIcNS_11char_traitsIcEENS_9allocatorIcEEE16__set_short_sizeB7v160006Em, symObjAddr: 0x3AA4, symBinAddr: 0x100007BD4, symSize: 0x78 }
  - { offsetInCU: 0xC770, offset: 0xC770, size: 0x8, addend: 0x0, symName: __ZNSt3__111char_traitsIcE6assignERcRKc, symObjAddr: 0x3B1C, symBinAddr: 0x100007C4C, symSize: 0x24 }
  - { offsetInCU: 0xC7A1, offset: 0xC7A1, size: 0x8, addend: 0x0, symName: __ZNSt3__112basic_stringIcNS_11char_traitsIcEENS_9allocatorIcEEE19__get_short_pointerB7v160006Ev, symObjAddr: 0x3B40, symBinAddr: 0x100007C70, symSize: 0x28 }
  - { offsetInCU: 0xC7C6, offset: 0xC7C6, size: 0x8, addend: 0x0, symName: __ZNSt3__19allocatorIcE10deallocateB7v160006EPcm, symObjAddr: 0x3B68, symBinAddr: 0x100007C98, symSize: 0x40 }
  - { offsetInCU: 0xC807, offset: 0xC807, size: 0x8, addend: 0x0, symName: __ZNSt3__117__compressed_pairINS_12basic_stringIcNS_11char_traitsIcEENS_9allocatorIcEEE5__repES5_E6secondB7v160006Ev, symObjAddr: 0x3C24, symBinAddr: 0x100007D54, symSize: 0x24 }
  - { offsetInCU: 0xC82C, offset: 0xC82C, size: 0x8, addend: 0x0, symName: __ZNSt3__122__compressed_pair_elemINS_9allocatorIcEELi1ELb1EE5__getB7v160006Ev, symObjAddr: 0x3C48, symBinAddr: 0x100007D78, symSize: 0x14 }
  - { offsetInCU: 0xC851, offset: 0xC851, size: 0x8, addend: 0x0, symName: __ZNSt3__112basic_stringIcNS_11char_traitsIcEENS_9allocatorIcEEE19__move_assign_allocB7v160006ERS5_NS_17integral_constantIbLb1EEE, symObjAddr: 0x3C5C, symBinAddr: 0x100007D8C, symSize: 0x38 }
  - { offsetInCU: 0xC891, offset: 0xC891, size: 0x8, addend: 0x0, symName: __ZNSt3__114pointer_traitsIPcE10pointer_toB7v160006ERc, symObjAddr: 0x3C94, symBinAddr: 0x100007DC4, symSize: 0x14 }
  - { offsetInCU: 0xC8B4, offset: 0xC8B4, size: 0x8, addend: 0x0, symName: __ZNSt3__112basic_stringIcNS_11char_traitsIcEENS_9allocatorIcEEEC2B7v160006Ev, symObjAddr: 0x3CA8, symBinAddr: 0x100007DD8, symSize: 0x4C }
  - { offsetInCU: 0xC8DD, offset: 0xC8DD, size: 0x8, addend: 0x0, symName: __ZNSt3__16vectorI7AccountNS_9allocatorIS1_EEEC2B7v160006Ev, symObjAddr: 0x3CF4, symBinAddr: 0x100007E24, symSize: 0x58 }
  - { offsetInCU: 0xC90B, offset: 0xC90B, size: 0x8, addend: 0x0, symName: __ZNSt3__117__compressed_pairIP7AccountNS_9allocatorIS1_EEEC1B7v160006IDnNS_18__default_init_tagEEEOT_OT0_, symObjAddr: 0x3D4C, symBinAddr: 0x100007E7C, symSize: 0x3C }
  - { offsetInCU: 0xC962, offset: 0xC962, size: 0x8, addend: 0x0, symName: __ZNSt3__117__compressed_pairIP7AccountNS_9allocatorIS1_EEEC2B7v160006IDnNS_18__default_init_tagEEEOT_OT0_, symObjAddr: 0x3D98, symBinAddr: 0x100007EC8, symSize: 0x40 }
  - { offsetInCU: 0xC9B9, offset: 0xC9B9, size: 0x8, addend: 0x0, symName: __ZNSt3__122__compressed_pair_elemIP7AccountLi0ELb0EEC2B7v160006IDnvEEOT_, symObjAddr: 0x3DD8, symBinAddr: 0x100007F08, symSize: 0x1C }
  - { offsetInCU: 0xC9FA, offset: 0xC9FA, size: 0x8, addend: 0x0, symName: __ZNSt3__122__compressed_pair_elemINS_9allocatorI7AccountEELi1ELb1EEC2B7v160006ENS_18__default_init_tagE, symObjAddr: 0x3DF4, symBinAddr: 0x100007F24, symSize: 0x2C }
  - { offsetInCU: 0xCA2E, offset: 0xCA2E, size: 0x8, addend: 0x0, symName: __ZNSt3__19allocatorI7AccountEC2B7v160006Ev, symObjAddr: 0x3E20, symBinAddr: 0x100007F50, symSize: 0x2C }
  - { offsetInCU: 0xCA57, offset: 0xCA57, size: 0x8, addend: 0x0, symName: __ZNSt3__116__non_trivial_ifILb1ENS_9allocatorI7AccountEEEC2B7v160006Ev, symObjAddr: 0x3E4C, symBinAddr: 0x100007F7C, symSize: 0x14 }
  - { offsetInCU: 0xCA80, offset: 0xCA80, size: 0x8, addend: 0x0, symName: __ZNSt3__16vectorI7AccountNS_9allocatorIS1_EEED2B7v160006Ev, symObjAddr: 0x3E60, symBinAddr: 0x100007F90, symSize: 0x44 }
  - { offsetInCU: 0xCAA9, offset: 0xCAA9, size: 0x8, addend: 0x0, symName: __ZNSt3__16vectorI7AccountNS_9allocatorIS1_EEE16__destroy_vectorC1ERS4_, symObjAddr: 0x3EA4, symBinAddr: 0x100007FD4, symSize: 0x34 }
  - { offsetInCU: 0xCAE1, offset: 0xCAE1, size: 0x8, addend: 0x0, symName: __ZNSt3__16vectorI7AccountNS_9allocatorIS1_EEE16__destroy_vectorclB7v160006Ev, symObjAddr: 0x3ED8, symBinAddr: 0x100008008, symSize: 0x9C }
  - { offsetInCU: 0xCB06, offset: 0xCB06, size: 0x8, addend: 0x0, symName: __ZNSt3__16vectorI7AccountNS_9allocatorIS1_EEE16__destroy_vectorC2ERS4_, symObjAddr: 0x3F74, symBinAddr: 0x1000080A4, symSize: 0x20 }
  - { offsetInCU: 0xCB3E, offset: 0xCB3E, size: 0x8, addend: 0x0, symName: __ZNKSt3__16vectorI7AccountNS_9allocatorIS1_EEE17__annotate_deleteB7v160006Ev, symObjAddr: 0x3F94, symBinAddr: 0x1000080C4, symSize: 0xD4 }
  - { offsetInCU: 0xCB63, offset: 0xCB63, size: 0x8, addend: 0x0, symName: __ZNSt3__16vectorI7AccountNS_9allocatorIS1_EEE7__clearB7v160006Ev, symObjAddr: 0x4078, symBinAddr: 0x1000081A8, symSize: 0x28 }
  - { offsetInCU: 0xCB88, offset: 0xCB88, size: 0x8, addend: 0x0, symName: __ZNSt3__116allocator_traitsINS_9allocatorI7AccountEEE10deallocateB7v160006ERS3_PS2_m, symObjAddr: 0x40A0, symBinAddr: 0x1000081D0, symSize: 0x34 }
  - { offsetInCU: 0xCBCA, offset: 0xCBCA, size: 0x8, addend: 0x0, symName: __ZNSt3__16vectorI7AccountNS_9allocatorIS1_EEE7__allocB7v160006Ev, symObjAddr: 0x40D4, symBinAddr: 0x100008204, symSize: 0x28 }
  - { offsetInCU: 0xCBEF, offset: 0xCBEF, size: 0x8, addend: 0x0, symName: __ZNKSt3__16vectorI7AccountNS_9allocatorIS1_EEE8capacityB7v160006Ev, symObjAddr: 0x40FC, symBinAddr: 0x10000822C, symSize: 0x40 }
  - { offsetInCU: 0xCC14, offset: 0xCC14, size: 0x8, addend: 0x0, symName: __ZNKSt3__16vectorI7AccountNS_9allocatorIS1_EEE31__annotate_contiguous_containerB7v160006EPKvS6_S6_S6_, symObjAddr: 0x413C, symBinAddr: 0x10000826C, symSize: 0x20 }
  - { offsetInCU: 0xCC69, offset: 0xCC69, size: 0x8, addend: 0x0, symName: __ZNKSt3__16vectorI7AccountNS_9allocatorIS1_EEE4dataB7v160006Ev, symObjAddr: 0x415C, symBinAddr: 0x10000828C, symSize: 0x28 }
  - { offsetInCU: 0xCC8E, offset: 0xCC8E, size: 0x8, addend: 0x0, symName: __ZNKSt3__16vectorI7AccountNS_9allocatorIS1_EEE4sizeB7v160006Ev, symObjAddr: 0x4184, symBinAddr: 0x1000082B4, symSize: 0x28 }
  - { offsetInCU: 0xCCB3, offset: 0xCCB3, size: 0x8, addend: 0x0, symName: __ZNSt3__16vectorI7AccountNS_9allocatorIS1_EEE22__base_destruct_at_endB7v160006EPS1_, symObjAddr: 0x41C0, symBinAddr: 0x1000082F0, symSize: 0x8C }
  - { offsetInCU: 0xCCF6, offset: 0xCCF6, size: 0x8, addend: 0x0, symName: __ZNSt3__116allocator_traitsINS_9allocatorI7AccountEEE7destroyB7v160006IS2_vEEvRS3_PT_, symObjAddr: 0x424C, symBinAddr: 0x10000837C, symSize: 0x2C }
  - { offsetInCU: 0xCD33, offset: 0xCD33, size: 0x8, addend: 0x0, symName: __ZNSt3__19allocatorI7AccountE7destroyB7v160006EPS1_, symObjAddr: 0x4278, symBinAddr: 0x1000083A8, symSize: 0x28 }
  - { offsetInCU: 0xCD66, offset: 0xCD66, size: 0x8, addend: 0x0, symName: __ZN7AccountD1Ev, symObjAddr: 0x42A0, symBinAddr: 0x1000083D0, symSize: 0x2C }
  - { offsetInCU: 0xCD91, offset: 0xCD91, size: 0x8, addend: 0x0, symName: __ZN7AccountD2Ev, symObjAddr: 0x42CC, symBinAddr: 0x1000083FC, symSize: 0x74 }
  - { offsetInCU: 0xCDBC, offset: 0xCDBC, size: 0x8, addend: 0x0, symName: __ZNSt3__19allocatorI7AccountE10deallocateB7v160006EPS1_m, symObjAddr: 0x4340, symBinAddr: 0x100008470, symSize: 0x44 }
  - { offsetInCU: 0xCDFD, offset: 0xCDFD, size: 0x8, addend: 0x0, symName: __ZNSt3__117__compressed_pairIP7AccountNS_9allocatorIS1_EEE6secondB7v160006Ev, symObjAddr: 0x4384, symBinAddr: 0x1000084B4, symSize: 0x24 }
  - { offsetInCU: 0xCE22, offset: 0xCE22, size: 0x8, addend: 0x0, symName: __ZNSt3__122__compressed_pair_elemINS_9allocatorI7AccountEELi1ELb1EE5__getB7v160006Ev, symObjAddr: 0x43A8, symBinAddr: 0x1000084D8, symSize: 0x14 }
  - { offsetInCU: 0xCE47, offset: 0xCE47, size: 0x8, addend: 0x0, symName: __ZNKSt3__16vectorI7AccountNS_9allocatorIS1_EEE9__end_capB7v160006Ev, symObjAddr: 0x43BC, symBinAddr: 0x1000084EC, symSize: 0x28 }
  - { offsetInCU: 0xCE6C, offset: 0xCE6C, size: 0x8, addend: 0x0, symName: __ZNKSt3__117__compressed_pairIP7AccountNS_9allocatorIS1_EEE5firstB7v160006Ev, symObjAddr: 0x43E4, symBinAddr: 0x100008514, symSize: 0x24 }
  - { offsetInCU: 0xCE91, offset: 0xCE91, size: 0x8, addend: 0x0, symName: __ZNKSt3__122__compressed_pair_elemIP7AccountLi0ELb0EE5__getB7v160006Ev, symObjAddr: 0x4408, symBinAddr: 0x100008538, symSize: 0x14 }
  - { offsetInCU: 0xCEB5, offset: 0xCEB5, size: 0x8, addend: 0x0, symName: __ZNKSt3__16vectorI7AccountNS_9allocatorIS1_EEE8max_sizeEv, symObjAddr: 0x441C, symBinAddr: 0x10000854C, symSize: 0x60 }
  - { offsetInCU: 0xCEDC, offset: 0xCEDC, size: 0x8, addend: 0x0, symName: __ZNKSt3__16vectorI7AccountNS_9allocatorIS1_EEE20__throw_length_errorB7v160006Ev, symObjAddr: 0x447C, symBinAddr: 0x1000085AC, symSize: 0x1C }
  - { offsetInCU: 0xCF01, offset: 0xCF01, size: 0x8, addend: 0x0, symName: __ZNSt3__114__split_bufferI7AccountRNS_9allocatorIS1_EEEC1EmmS4_, symObjAddr: 0x4498, symBinAddr: 0x1000085C8, symSize: 0x44 }
  - { offsetInCU: 0xCF56, offset: 0xCF56, size: 0x8, addend: 0x0, symName: __ZNSt3__114__split_bufferI7AccountRNS_9allocatorIS1_EEED1Ev, symObjAddr: 0x45F4, symBinAddr: 0x100008724, symSize: 0x2C }
  - { offsetInCU: 0xCF8B, offset: 0xCF8B, size: 0x8, addend: 0x0, symName: __ZNSt3__116allocator_traitsINS_9allocatorI7AccountEEE8max_sizeB7v160006IS3_vEEmRKS3_, symObjAddr: 0x464C, symBinAddr: 0x10000877C, symSize: 0x24 }
  - { offsetInCU: 0xCFB9, offset: 0xCFB9, size: 0x8, addend: 0x0, symName: __ZNKSt3__16vectorI7AccountNS_9allocatorIS1_EEE7__allocB7v160006Ev, symObjAddr: 0x4670, symBinAddr: 0x1000087A0, symSize: 0x28 }
  - { offsetInCU: 0xCFDE, offset: 0xCFDE, size: 0x8, addend: 0x0, symName: __ZNSt3__114numeric_limitsIlE3maxB7v160006Ev, symObjAddr: 0x4698, symBinAddr: 0x1000087C8, symSize: 0x14 }
  - { offsetInCU: 0xD006, offset: 0xD006, size: 0x8, addend: 0x0, symName: __ZNKSt3__16__lessImmEclB7v160006ERKmS3_, symObjAddr: 0x4700, symBinAddr: 0x100008830, symSize: 0x34 }
  - { offsetInCU: 0xD047, offset: 0xD047, size: 0x8, addend: 0x0, symName: __ZNKSt3__19allocatorI7AccountE8max_sizeB7v160006Ev, symObjAddr: 0x4734, symBinAddr: 0x100008864, symSize: 0x20 }
  - { offsetInCU: 0xD06C, offset: 0xD06C, size: 0x8, addend: 0x0, symName: __ZNKSt3__117__compressed_pairIP7AccountNS_9allocatorIS1_EEE6secondB7v160006Ev, symObjAddr: 0x4754, symBinAddr: 0x100008884, symSize: 0x24 }
  - { offsetInCU: 0xD091, offset: 0xD091, size: 0x8, addend: 0x0, symName: __ZNKSt3__122__compressed_pair_elemINS_9allocatorI7AccountEELi1ELb1EE5__getB7v160006Ev, symObjAddr: 0x4778, symBinAddr: 0x1000088A8, symSize: 0x14 }
  - { offsetInCU: 0xD0B6, offset: 0xD0B6, size: 0x8, addend: 0x0, symName: __ZNSt3__123__libcpp_numeric_limitsIlLb1EE3maxB7v160006Ev, symObjAddr: 0x478C, symBinAddr: 0x1000088BC, symSize: 0x8 }
  - { offsetInCU: 0xD0CA, offset: 0xD0CA, size: 0x8, addend: 0x0, symName: __ZNSt12length_errorC1B7v160006EPKc, symObjAddr: 0x47F8, symBinAddr: 0x100008928, symSize: 0x34 }
  - { offsetInCU: 0xD101, offset: 0xD101, size: 0x8, addend: 0x0, symName: __ZNSt12length_errorC2B7v160006EPKc, symObjAddr: 0x482C, symBinAddr: 0x10000895C, symSize: 0x4C }
  - { offsetInCU: 0xD138, offset: 0xD138, size: 0x8, addend: 0x0, symName: __ZNSt3__114__split_bufferI7AccountRNS_9allocatorIS1_EEEC2EmmS4_, symObjAddr: 0x4878, symBinAddr: 0x1000089A8, symSize: 0xE0 }
  - { offsetInCU: 0xD1AB, offset: 0xD1AB, size: 0x8, addend: 0x0, symName: __ZNSt3__117__compressed_pairIP7AccountRNS_9allocatorIS1_EEEC1B7v160006IDnS5_EEOT_OT0_, symObjAddr: 0x4958, symBinAddr: 0x100008A88, symSize: 0x3C }
  - { offsetInCU: 0xD202, offset: 0xD202, size: 0x8, addend: 0x0, symName: __ZNSt3__114__split_bufferI7AccountRNS_9allocatorIS1_EEE7__allocB7v160006Ev, symObjAddr: 0x49D4, symBinAddr: 0x100008B04, symSize: 0x28 }
  - { offsetInCU: 0xD227, offset: 0xD227, size: 0x8, addend: 0x0, symName: __ZNSt3__114__split_bufferI7AccountRNS_9allocatorIS1_EEE9__end_capB7v160006Ev, symObjAddr: 0x49FC, symBinAddr: 0x100008B2C, symSize: 0x28 }
  - { offsetInCU: 0xD24C, offset: 0xD24C, size: 0x8, addend: 0x0, symName: __ZNSt3__117__compressed_pairIP7AccountRNS_9allocatorIS1_EEEC2B7v160006IDnS5_EEOT_OT0_, symObjAddr: 0x4A24, symBinAddr: 0x100008B54, symSize: 0x48 }
  - { offsetInCU: 0xD2A3, offset: 0xD2A3, size: 0x8, addend: 0x0, symName: __ZNSt3__122__compressed_pair_elemIRNS_9allocatorI7AccountEELi1ELb0EEC2B7v160006IS4_vEEOT_, symObjAddr: 0x4A6C, symBinAddr: 0x100008B9C, symSize: 0x20 }
  - { offsetInCU: 0xD2E4, offset: 0xD2E4, size: 0x8, addend: 0x0, symName: __ZNSt3__19allocatorI7AccountE8allocateB7v160006Em, symObjAddr: 0x4A8C, symBinAddr: 0x100008BBC, symSize: 0x5C }
  - { offsetInCU: 0xD317, offset: 0xD317, size: 0x8, addend: 0x0, symName: __ZNSt3__117__compressed_pairIP7AccountRNS_9allocatorIS1_EEE6secondB7v160006Ev, symObjAddr: 0x4B68, symBinAddr: 0x100008C98, symSize: 0x28 }
  - { offsetInCU: 0xD33C, offset: 0xD33C, size: 0x8, addend: 0x0, symName: __ZNSt3__122__compressed_pair_elemIRNS_9allocatorI7AccountEELi1ELb0EE5__getB7v160006Ev, symObjAddr: 0x4B90, symBinAddr: 0x100008CC0, symSize: 0x18 }
  - { offsetInCU: 0xD361, offset: 0xD361, size: 0x8, addend: 0x0, symName: __ZNSt3__117__compressed_pairIP7AccountRNS_9allocatorIS1_EEE5firstB7v160006Ev, symObjAddr: 0x4BA8, symBinAddr: 0x100008CD8, symSize: 0x24 }
  - { offsetInCU: 0xD386, offset: 0xD386, size: 0x8, addend: 0x0, symName: __ZNSt3__122__compressed_pair_elemIP7AccountLi0ELb0EE5__getB7v160006Ev, symObjAddr: 0x4BCC, symBinAddr: 0x100008CFC, symSize: 0x14 }
  - { offsetInCU: 0xD3AB, offset: 0xD3AB, size: 0x8, addend: 0x0, symName: __ZNSt3__116reverse_iteratorIP7AccountEC1B7v160006ES2_, symObjAddr: 0x4D0C, symBinAddr: 0x100008E3C, symSize: 0x34 }
  - { offsetInCU: 0xD3E2, offset: 0xD3E2, size: 0x8, addend: 0x0, symName: __ZNKSt3__116reverse_iteratorIP7AccountE4baseB7v160006Ev, symObjAddr: 0x4D40, symBinAddr: 0x100008E70, symSize: 0x18 }
  - { offsetInCU: 0xD407, offset: 0xD407, size: 0x8, addend: 0x0, symName: __ZNSt3__16vectorI7AccountNS_9allocatorIS1_EEE9__end_capB7v160006Ev, symObjAddr: 0x4D94, symBinAddr: 0x100008EC4, symSize: 0x28 }
  - { offsetInCU: 0xD42C, offset: 0xD42C, size: 0x8, addend: 0x0, symName: __ZNKSt3__16vectorI7AccountNS_9allocatorIS1_EEE14__annotate_newB7v160006Em, symObjAddr: 0x4DBC, symBinAddr: 0x100008EEC, symSize: 0xC8 }
  - { offsetInCU: 0xD460, offset: 0xD460, size: 0x8, addend: 0x0, symName: __ZNSt3__129_AllocatorDestroyRangeReverseINS_9allocatorI7AccountEENS_16reverse_iteratorIPS2_EEEC1B7v160006ERS3_RS6_S9_, symObjAddr: 0x4EE0, symBinAddr: 0x100009010, symSize: 0x44 }
  - { offsetInCU: 0xD4BB, offset: 0xD4BB, size: 0x8, addend: 0x0, symName: __ZNSt3__116allocator_traitsINS_9allocatorI7AccountEEE9constructB7v160006IS2_JS2_EvEEvRS3_PT_DpOT0_, symObjAddr: 0x4F6C, symBinAddr: 0x10000909C, symSize: 0x34 }
  - { offsetInCU: 0xD512, offset: 0xD512, size: 0x8, addend: 0x0, symName: __ZNKSt3__116reverse_iteratorIP7AccountEdeB7v160006Ev, symObjAddr: 0x4FC4, symBinAddr: 0x1000090F4, symSize: 0x28 }
  - { offsetInCU: 0xD545, offset: 0xD545, size: 0x8, addend: 0x0, symName: __ZNSt3__116reverse_iteratorIP7AccountEppB7v160006Ev, symObjAddr: 0x4FEC, symBinAddr: 0x10000911C, symSize: 0x20 }
  - { offsetInCU: 0xD56A, offset: 0xD56A, size: 0x8, addend: 0x0, symName: __ZNSt3__128__exception_guard_exceptionsINS_29_AllocatorDestroyRangeReverseINS_9allocatorI7AccountEENS_16reverse_iteratorIPS3_EEEEE10__completeB7v160006Ev, symObjAddr: 0x500C, symBinAddr: 0x10000913C, symSize: 0x1C }
  - { offsetInCU: 0xD58F, offset: 0xD58F, size: 0x8, addend: 0x0, symName: __ZNSt3__128__exception_guard_exceptionsINS_29_AllocatorDestroyRangeReverseINS_9allocatorI7AccountEENS_16reverse_iteratorIPS3_EEEEED1B7v160006Ev, symObjAddr: 0x5028, symBinAddr: 0x100009158, symSize: 0x2C }
  - { offsetInCU: 0xD5B8, offset: 0xD5B8, size: 0x8, addend: 0x0, symName: __ZNSt3__128__exception_guard_exceptionsINS_29_AllocatorDestroyRangeReverseINS_9allocatorI7AccountEENS_16reverse_iteratorIPS3_EEEEEC1B7v160006ES8_, symObjAddr: 0x5054, symBinAddr: 0x100009184, symSize: 0x34 }
  - { offsetInCU: 0xD5F0, offset: 0xD5F0, size: 0x8, addend: 0x0, symName: __ZNSt3__128__exception_guard_exceptionsINS_29_AllocatorDestroyRangeReverseINS_9allocatorI7AccountEENS_16reverse_iteratorIPS3_EEEEEC2B7v160006ES8_, symObjAddr: 0x5088, symBinAddr: 0x1000091B8, symSize: 0x30 }
  - { offsetInCU: 0xD628, offset: 0xD628, size: 0x8, addend: 0x0, symName: __ZNSt3__129_AllocatorDestroyRangeReverseINS_9allocatorI7AccountEENS_16reverse_iteratorIPS2_EEEC2B7v160006ERS3_RS6_S9_, symObjAddr: 0x50B8, symBinAddr: 0x1000091E8, symSize: 0x38 }
  - { offsetInCU: 0xD67E, offset: 0xD67E, size: 0x8, addend: 0x0, symName: __ZNSt3__19allocatorI7AccountE9constructB7v160006IS1_JS1_EEEvPT_DpOT0_, symObjAddr: 0x50F0, symBinAddr: 0x100009220, symSize: 0x30 }
  - { offsetInCU: 0xD6D3, offset: 0xD6D3, size: 0x8, addend: 0x0, symName: __ZN7AccountC1EOS_, symObjAddr: 0x5120, symBinAddr: 0x100009250, symSize: 0x34 }
  - { offsetInCU: 0xD707, offset: 0xD707, size: 0x8, addend: 0x0, symName: __ZN7AccountC2EOS_, symObjAddr: 0x5154, symBinAddr: 0x100009284, symSize: 0xB8 }
  - { offsetInCU: 0xD740, offset: 0xD740, size: 0x8, addend: 0x0, symName: __ZNSt3__119__to_address_helperINS_16reverse_iteratorIP7AccountEEvE6__callB7v160006ERKS4_, symObjAddr: 0x520C, symBinAddr: 0x10000933C, symSize: 0x38 }
  - { offsetInCU: 0xD763, offset: 0xD763, size: 0x8, addend: 0x0, symName: __ZNKSt3__116reverse_iteratorIP7AccountEptB7v160006Ev, symObjAddr: 0x5244, symBinAddr: 0x100009374, symSize: 0x24 }
  - { offsetInCU: 0xD788, offset: 0xD788, size: 0x8, addend: 0x0, symName: __ZNSt3__128__exception_guard_exceptionsINS_29_AllocatorDestroyRangeReverseINS_9allocatorI7AccountEENS_16reverse_iteratorIPS3_EEEEED2B7v160006Ev, symObjAddr: 0x5268, symBinAddr: 0x100009398, symSize: 0x50 }
  - { offsetInCU: 0xD7B1, offset: 0xD7B1, size: 0x8, addend: 0x0, symName: __ZNKSt3__129_AllocatorDestroyRangeReverseINS_9allocatorI7AccountEENS_16reverse_iteratorIPS2_EEEclB7v160006Ev, symObjAddr: 0x52B8, symBinAddr: 0x1000093E8, symSize: 0xB4 }
  - { offsetInCU: 0xD7D7, offset: 0xD7D7, size: 0x8, addend: 0x0, symName: __ZNSt3__116reverse_iteratorINS0_IP7AccountEEEC1B7v160006ES3_, symObjAddr: 0x53DC, symBinAddr: 0x10000950C, symSize: 0x3C }
  - { offsetInCU: 0xD80E, offset: 0xD80E, size: 0x8, addend: 0x0, symName: __ZNSt3__116reverse_iteratorINS0_IP7AccountEEEppB7v160006Ev, symObjAddr: 0x549C, symBinAddr: 0x1000095CC, symSize: 0x30 }
  - { offsetInCU: 0xD833, offset: 0xD833, size: 0x8, addend: 0x0, symName: __ZNKSt3__116reverse_iteratorINS0_IP7AccountEEE4baseB7v160006Ev, symObjAddr: 0x54CC, symBinAddr: 0x1000095FC, symSize: 0x24 }
  - { offsetInCU: 0xD85D, offset: 0xD85D, size: 0x8, addend: 0x0, symName: __ZNSt3__119__to_address_helperINS_16reverse_iteratorINS1_IP7AccountEEEEvE6__callB7v160006ERKS5_, symObjAddr: 0x54F0, symBinAddr: 0x100009620, symSize: 0x38 }
  - { offsetInCU: 0xD880, offset: 0xD880, size: 0x8, addend: 0x0, symName: __ZNKSt3__116reverse_iteratorINS0_IP7AccountEEEptB7v160006Ev, symObjAddr: 0x5528, symBinAddr: 0x100009658, symSize: 0x24 }
  - { offsetInCU: 0xD8A5, offset: 0xD8A5, size: 0x8, addend: 0x0, symName: __ZNKSt3__116reverse_iteratorINS0_IP7AccountEEEdeB7v160006Ev, symObjAddr: 0x554C, symBinAddr: 0x10000967C, symSize: 0x34 }
  - { offsetInCU: 0xD8D8, offset: 0xD8D8, size: 0x8, addend: 0x0, symName: __ZNSt3__116reverse_iteratorIP7AccountEmmB7v160006Ev, symObjAddr: 0x5580, symBinAddr: 0x1000096B0, symSize: 0x20 }
  - { offsetInCU: 0xD8FD, offset: 0xD8FD, size: 0x8, addend: 0x0, symName: __ZNSt3__116reverse_iteratorINS0_IP7AccountEEEC2B7v160006ES3_, symObjAddr: 0x55A0, symBinAddr: 0x1000096D0, symSize: 0x2C }
  - { offsetInCU: 0xD934, offset: 0xD934, size: 0x8, addend: 0x0, symName: __ZNSt3__116reverse_iteratorIP7AccountEC2B7v160006ES2_, symObjAddr: 0x55CC, symBinAddr: 0x1000096FC, symSize: 0x28 }
  - { offsetInCU: 0xD96B, offset: 0xD96B, size: 0x8, addend: 0x0, symName: __ZNSt3__117__compressed_pairIP7AccountNS_9allocatorIS1_EEE5firstB7v160006Ev, symObjAddr: 0x55F4, symBinAddr: 0x100009724, symSize: 0x24 }
  - { offsetInCU: 0xD990, offset: 0xD990, size: 0x8, addend: 0x0, symName: __ZNSt3__114__split_bufferI7AccountRNS_9allocatorIS1_EEED2Ev, symObjAddr: 0x5618, symBinAddr: 0x100009748, symSize: 0x8C }
  - { offsetInCU: 0xD9BB, offset: 0xD9BB, size: 0x8, addend: 0x0, symName: __ZNSt3__114__split_bufferI7AccountRNS_9allocatorIS1_EEE5clearB7v160006Ev, symObjAddr: 0x56A4, symBinAddr: 0x1000097D4, symSize: 0x28 }
  - { offsetInCU: 0xD9E0, offset: 0xD9E0, size: 0x8, addend: 0x0, symName: __ZNKSt3__114__split_bufferI7AccountRNS_9allocatorIS1_EEE8capacityB7v160006Ev, symObjAddr: 0x56CC, symBinAddr: 0x1000097FC, symSize: 0x40 }
  - { offsetInCU: 0xDA05, offset: 0xDA05, size: 0x8, addend: 0x0, symName: __ZNSt3__114__split_bufferI7AccountRNS_9allocatorIS1_EEE17__destruct_at_endB7v160006EPS1_, symObjAddr: 0x570C, symBinAddr: 0x10000983C, symSize: 0x2C }
  - { offsetInCU: 0xDA37, offset: 0xDA37, size: 0x8, addend: 0x0, symName: __ZNSt3__114__split_bufferI7AccountRNS_9allocatorIS1_EEE17__destruct_at_endB7v160006EPS1_NS_17integral_constantIbLb0EEE, symObjAddr: 0x5738, symBinAddr: 0x100009868, symSize: 0x80 }
  - { offsetInCU: 0xDA77, offset: 0xDA77, size: 0x8, addend: 0x0, symName: __ZNKSt3__114__split_bufferI7AccountRNS_9allocatorIS1_EEE9__end_capB7v160006Ev, symObjAddr: 0x57B8, symBinAddr: 0x1000098E8, symSize: 0x28 }
  - { offsetInCU: 0xDA9C, offset: 0xDA9C, size: 0x8, addend: 0x0, symName: __ZNKSt3__117__compressed_pairIP7AccountRNS_9allocatorIS1_EEE5firstB7v160006Ev, symObjAddr: 0x57E0, symBinAddr: 0x100009910, symSize: 0x24 }
  - { offsetInCU: 0xDB53, offset: 0xDB53, size: 0x8, addend: 0x0, symName: __ZNKSt3__113basic_istreamIcNS_11char_traitsIcEEE6sentrycvbB7v160006Ev, symObjAddr: 0x5804, symBinAddr: 0x100009934, symSize: 0x1C }
  - { offsetInCU: 0xDB77, offset: 0xDB77, size: 0x8, addend: 0x0, symName: __ZNSt3__112basic_stringIcNS_11char_traitsIcEENS_9allocatorIcEEE5clearB7v160006Ev, symObjAddr: 0x5820, symBinAddr: 0x100009950, symSize: 0x88 }
  - { offsetInCU: 0xDB9E, offset: 0xDB9E, size: 0x8, addend: 0x0, symName: __ZNKSt3__112basic_stringIcNS_11char_traitsIcEENS_9allocatorIcEEE8max_sizeB7v160006Ev, symObjAddr: 0x58A8, symBinAddr: 0x1000099D8, symSize: 0xAC }
  - { offsetInCU: 0xDBF0, offset: 0xDBF0, size: 0x8, addend: 0x0, symName: __ZNSt3__115basic_streambufIcNS_11char_traitsIcEEE5sgetcB7v160006Ev, symObjAddr: 0x5954, symBinAddr: 0x100009A84, symSize: 0x70 }
  - { offsetInCU: 0xDC15, offset: 0xDC15, size: 0x8, addend: 0x0, symName: __ZNSt3__111char_traitsIcE12to_char_typeEi, symObjAddr: 0x59C4, symBinAddr: 0x100009AF4, symSize: 0x18 }
  - { offsetInCU: 0xDC38, offset: 0xDC38, size: 0x8, addend: 0x0, symName: __ZNKSt3__15ctypeIcE2isB7v160006Ejc, symObjAddr: 0x59DC, symBinAddr: 0x100009B0C, symSize: 0x7C }
  - { offsetInCU: 0xDC7B, offset: 0xDC7B, size: 0x8, addend: 0x0, symName: __ZNSt3__115basic_streambufIcNS_11char_traitsIcEEE6sbumpcB7v160006Ev, symObjAddr: 0x5A58, symBinAddr: 0x100009B88, symSize: 0x78 }
  - { offsetInCU: 0xDCA0, offset: 0xDCA0, size: 0x8, addend: 0x0, symName: __ZNSt3__18ios_base18__setstate_nothrowB7v160006Ej, symObjAddr: 0x5AD0, symBinAddr: 0x100009C00, symSize: 0x64 }
  - { offsetInCU: 0xDCD4, offset: 0xDCD4, size: 0x8, addend: 0x0, symName: __ZNKSt3__19basic_iosIcNS_11char_traitsIcEEE10exceptionsB7v160006Ev, symObjAddr: 0x5B34, symBinAddr: 0x100009C64, symSize: 0x24 }
  - { offsetInCU: 0xDCF9, offset: 0xDCF9, size: 0x8, addend: 0x0, symName: __ZNSt3__112basic_stringIcNS_11char_traitsIcEENS_9allocatorIcEEE15__set_long_sizeB7v160006Em, symObjAddr: 0x5B68, symBinAddr: 0x100009C98, symSize: 0x38 }
  - { offsetInCU: 0xDD37, offset: 0xDD37, size: 0x8, addend: 0x0, symName: __ZNSt3__116allocator_traitsINS_9allocatorIcEEE8max_sizeB7v160006IS2_vEEmRKS2_, symObjAddr: 0x5BA0, symBinAddr: 0x100009CD0, symSize: 0x24 }
  - { offsetInCU: 0xDD65, offset: 0xDD65, size: 0x8, addend: 0x0, symName: __ZNKSt3__112basic_stringIcNS_11char_traitsIcEENS_9allocatorIcEEE7__allocB7v160006Ev, symObjAddr: 0x5BC4, symBinAddr: 0x100009CF4, symSize: 0x24 }
  - { offsetInCU: 0xDD8A, offset: 0xDD8A, size: 0x8, addend: 0x0, symName: __ZNSt3__114numeric_limitsImE3maxB7v160006Ev, symObjAddr: 0x5BE8, symBinAddr: 0x100009D18, symSize: 0x14 }
  - { offsetInCU: 0xDD9E, offset: 0xDD9E, size: 0x8, addend: 0x0, symName: __ZNKSt3__19allocatorIcE8max_sizeB7v160006Ev, symObjAddr: 0x5BFC, symBinAddr: 0x100009D2C, symSize: 0x14 }
  - { offsetInCU: 0xDDC3, offset: 0xDDC3, size: 0x8, addend: 0x0, symName: __ZNKSt3__117__compressed_pairINS_12basic_stringIcNS_11char_traitsIcEENS_9allocatorIcEEE5__repES5_E6secondB7v160006Ev, symObjAddr: 0x5C10, symBinAddr: 0x100009D40, symSize: 0x24 }
  - { offsetInCU: 0xDDE8, offset: 0xDDE8, size: 0x8, addend: 0x0, symName: __ZNKSt3__122__compressed_pair_elemINS_9allocatorIcEELi1ELb1EE5__getB7v160006Ev, symObjAddr: 0x5C34, symBinAddr: 0x100009D64, symSize: 0x14 }
  - { offsetInCU: 0xDE0D, offset: 0xDE0D, size: 0x8, addend: 0x0, symName: __ZNSt3__123__libcpp_numeric_limitsImLb1EE3maxB7v160006Ev, symObjAddr: 0x5C48, symBinAddr: 0x100009D78, symSize: 0x8 }
  - { offsetInCU: 0xDE21, offset: 0xDE21, size: 0x8, addend: 0x0, symName: __ZNSt3__111char_traitsIcE11to_int_typeEc, symObjAddr: 0x5C50, symBinAddr: 0x100009D80, symSize: 0x14 }
  - { offsetInCU: 0xDE43, offset: 0xDE43, size: 0x8, addend: 0x0, symName: __Z7isasciii, symObjAddr: 0x5C64, symBinAddr: 0x100009D94, symSize: 0x24 }
  - { offsetInCU: 0xDE70, offset: 0xDE70, size: 0x8, addend: 0x0, symName: __ZNKSt3__18ios_base10exceptionsB7v160006Ev, symObjAddr: 0x5C88, symBinAddr: 0x100009DB8, symSize: 0x18 }
  - { offsetInCU: 0xDE97, offset: 0xDE97, size: 0x8, addend: 0x0, symName: __ZNKSt3__112basic_stringIcNS_11char_traitsIcEENS_9allocatorIcEEE4sizeB7v160006Ev, symObjAddr: 0x5CA0, symBinAddr: 0x100009DD0, symSize: 0x54 }
  - { offsetInCU: 0xDEBC, offset: 0xDEBC, size: 0x8, addend: 0x0, symName: __ZNKSt3__112basic_stringIcNS_11char_traitsIcEENS_9allocatorIcEEE15__get_long_sizeB7v160006Ev, symObjAddr: 0x5CF4, symBinAddr: 0x100009E24, symSize: 0x28 }
  - { offsetInCU: 0xDEE1, offset: 0xDEE1, size: 0x8, addend: 0x0, symName: __ZNKSt3__112basic_stringIcNS_11char_traitsIcEENS_9allocatorIcEEE16__get_short_sizeB7v160006Ev, symObjAddr: 0x5D1C, symBinAddr: 0x100009E4C, symSize: 0x34 }
  - { offsetInCU: 0xDF05, offset: 0xDF05, size: 0x8, addend: 0x0, symName: __ZNKSt3__112basic_stringIcNS_11char_traitsIcEENS_9allocatorIcEEE7compareINS_17basic_string_viewIcS2_EEEENS_9enable_ifIXsr33__can_be_converted_to_string_viewIcS2_T_EE5valueEiE4typeERKSA_, symObjAddr: 0x5D50, symBinAddr: 0x100009E80, symSize: 0x12C }
  - { offsetInCU: 0xDF81, offset: 0xDF81, size: 0x8, addend: 0x0, symName: __ZNKSt3__112basic_stringIcNS_11char_traitsIcEENS_9allocatorIcEEEcvNS_17basic_string_viewIcS2_EEB7v160006Ev, symObjAddr: 0x5E7C, symBinAddr: 0x100009FAC, symSize: 0x50 }
  - { offsetInCU: 0xDFA6, offset: 0xDFA6, size: 0x8, addend: 0x0, symName: __ZNKSt3__117basic_string_viewIcNS_11char_traitsIcEEE4sizeB7v160006Ev, symObjAddr: 0x5ECC, symBinAddr: 0x100009FFC, symSize: 0x18 }
  - { offsetInCU: 0xDFCB, offset: 0xDFCB, size: 0x8, addend: 0x0, symName: __ZNSt3__111char_traitsIcE7compareEPKcS3_m, symObjAddr: 0x5EE4, symBinAddr: 0x10000A014, symSize: 0x6C }
  - { offsetInCU: 0xE00A, offset: 0xE00A, size: 0x8, addend: 0x0, symName: __ZNKSt3__117basic_string_viewIcNS_11char_traitsIcEEE4dataB7v160006Ev, symObjAddr: 0x5F50, symBinAddr: 0x10000A080, symSize: 0x18 }
  - { offsetInCU: 0xE02F, offset: 0xE02F, size: 0x8, addend: 0x0, symName: __ZNSt3__117basic_string_viewIcNS_11char_traitsIcEEEC1B7v160006EPKcm, symObjAddr: 0x5F9C, symBinAddr: 0x10000A0CC, symSize: 0x3C }
  - { offsetInCU: 0xE076, offset: 0xE076, size: 0x8, addend: 0x0, symName: __ZNSt3__117basic_string_viewIcNS_11char_traitsIcEEEC2B7v160006EPKcm, symObjAddr: 0x5FD8, symBinAddr: 0x10000A108, symSize: 0x2C }
...
